; Function Attrs: mustprogress nounwind uwtable
define dso_local noundef ptr @_ZN4llvm25getOrCreateFunctionComdatERNS_8FunctionERNS_6TripleE(ptr noundef nonnull align 8 dereferenceable(136) %0, ptr nocapture noundef nonnull readonly align 8 dereferenceable(56) %1) local_unnamed_addr #0 {
  %3 = getelementptr inbounds nuw i8, ptr %0, i64 48
  %4 = load ptr, ptr %3, align 8
  %.not = icmp eq ptr %4, null
  br i1 %.not, label %5, label %19

5:                                                ; preds = %2
  %6 = getelementptr inbounds nuw i8, ptr %0, i64 40
  %7 = load ptr, ptr %6, align 8
  %8 = tail call { ptr, i64 } @_ZNK4llvm5Value7getNameEv(ptr noundef nonnull align 8 dereferenceable(24) %0) #11
  %9 = extractvalue { ptr, i64 } %8, 0
  %10 = extractvalue { ptr, i64 } %8, 1
  %11 = tail call noundef ptr @_ZN4llvm6Module17getOrInsertComdatENS_9StringRefE(ptr noundef nonnull align 8 dereferenceable(857) %7, ptr %9, i64 %10) #11
  %12 = getelementptr inbounds nuw i8, ptr %1, i64 52
  %13 = load i32, ptr %12, align 4
  switch i32 %13, label %_ZNK4llvm11GlobalValue15isWeakForLinkerEv.exit.thread [
    i32 3, label %_ZNK4llvm11GlobalValue15isWeakForLinkerEv.exit
    i32 1, label %14
  ]

14:                                               ; preds = %5
  %15 = getelementptr inbounds nuw i8, ptr %0, i64 32
  %16 = load i32, ptr %15, align 8
  %17 = and i32 %16, 15
  switch i32 %17, label %_ZNK4llvm11GlobalValue15isWeakForLinkerEv.exit [
    i32 10, label %_ZNK4llvm11GlobalValue15isWeakForLinkerEv.exit.thread
    i32 5, label %_ZNK4llvm11GlobalValue15isWeakForLinkerEv.exit.thread
    i32 4, label %_ZNK4llvm11GlobalValue15isWeakForLinkerEv.exit.thread
    i32 3, label %_ZNK4llvm11GlobalValue15isWeakForLinkerEv.exit.thread
    i32 2, label %_ZNK4llvm11GlobalValue15isWeakForLinkerEv.exit.thread
    i32 9, label %_ZNK4llvm11GlobalValue15isWeakForLinkerEv.exit.thread
  ]

_ZNK4llvm11GlobalValue15isWeakForLinkerEv.exit:   ; preds = %5, %14
  %18 = getelementptr inbounds nuw i8, ptr %11, i64 8
  store i32 3, ptr %18, align 8
  br label %_ZNK4llvm11GlobalValue15isWeakForLinkerEv.exit.thread

_ZNK4llvm11GlobalValue15isWeakForLinkerEv.exit.thread: ; preds = %5, %14, %14, %14, %14, %14, %14, %_ZNK4llvm11GlobalValue15isWeakForLinkerEv.exit
  tail call void @_ZN4llvm12GlobalObject9setComdatEPNS_6ComdatE(ptr noundef nonnull align 8 dereferenceable(56) %0, ptr noundef %11) #11
  br label %19

19:                                               ; preds = %2, %_ZNK4llvm11GlobalValue15isWeakForLinkerEv.exit.thread
  %.0 = phi ptr [ %11, %_ZNK4llvm11GlobalValue15isWeakForLinkerEv.exit.thread ], [ %4, %2 ]
  ret ptr %.0
}